; Function Attrs: nounwind uwtable
define noalias noundef ptr @Mpm_ManFindCells(ptr noundef %0, ptr noundef readonly captures(none) %1, ptr noundef readonly captures(none) %2) local_unnamed_addr #0 {
  %4 = getelementptr i8, ptr %2, i64 4
  %.val20 = load i32, ptr %4, align 4
  %5 = tail call noalias dereferenceable_or_null(16) ptr @malloc(i64 noundef 16) #9
  %6 = add i32 %.val20, -1
  %or.cond.i.i = icmp ult i32 %6, 7
  %spec.store.select.i.i = select i1 %or.cond.i.i, i32 8, i32 %.val20
  store i32 %spec.store.select.i.i, ptr %5, align 8
  %.not.i.i = icmp eq i32 %spec.store.select.i.i, 0
  br i1 %.not.i.i, label %Vec_PtrStart.exit, label %7

7:                                                ; preds = %3
  %8 = sext i32 %spec.store.select.i.i to i64
  %9 = shl nsw i64 %8, 3
  %10 = tail call noalias ptr @malloc(i64 noundef %9) #9
  br label %Vec_PtrStart.exit

Vec_PtrStart.exit:                                ; preds = %3, %7
  %11 = phi ptr [ %10, %7 ], [ null, %3 ]
  %12 = getelementptr inbounds nuw i8, ptr %5, i64 4
  %13 = getelementptr inbounds nuw i8, ptr %5, i64 8
  store ptr %11, ptr %13, align 8
  store i32 %.val20, ptr %12, align 4
  %14 = sext i32 %.val20 to i64
  %15 = shl nsw i64 %14, 3
  tail call void @llvm.memset.p0.i64(ptr align 8 %11, i8 0, i64 %15, i1 false)
  %16 = icmp sgt i32 %.val20, 0
  br i1 %16, label %.lr.ph, label %.critedge

.lr.ph:                                           ; preds = %Vec_PtrStart.exit
  %17 = getelementptr i8, ptr %2, i64 8
  %18 = getelementptr i8, ptr %1, i64 104
  br label %19

19:                                               ; preds = %.lr.ph, %37
  %.val2129 = phi i32 [ %.val20, %.lr.ph ], [ %.val21, %37 ]
  %indvars.iv = phi i64 [ 0, %.lr.ph ], [ %indvars.iv.next, %37 ]
  %.val = load ptr, ptr %17, align 8
  %20 = getelementptr inbounds nuw %struct.Vec_Int_t_, ptr %.val, i64 %indvars.iv
  %21 = getelementptr i8, ptr %20, i64 4
  %.val22 = load i32, ptr %21, align 4
  %22 = icmp eq i32 %.val22, 0
  br i1 %22, label %37, label %23

23:                                               ; preds = %19
  %24 = getelementptr i8, ptr %20, i64 8
  %.val23 = load ptr, ptr %24, align 8
  %25 = load i32, ptr %.val23, align 4
  %26 = ashr i32 %25, 17
  %.val24 = load ptr, ptr %18, align 8
  %27 = sext i32 %26 to i64
  %28 = getelementptr inbounds ptr, ptr %.val24, i64 %27
  %29 = load ptr, ptr %28, align 8
  %30 = load ptr, ptr %29, align 8
  %31 = tail call ptr @Mio_LibraryReadGateByName(ptr noundef %0, ptr noundef %30, ptr noundef null) #11
  %32 = icmp eq ptr %31, null
  br i1 %32, label %33, label %35

33:                                               ; preds = %23
  %.not.i = icmp eq ptr %11, null
  br i1 %.not.i, label %Vec_PtrFree.exit, label %34

34:                                               ; preds = %33
  tail call void @free(ptr noundef nonnull %11) #11
  br label %Vec_PtrFree.exit

Vec_PtrFree.exit:                                 ; preds = %33, %34
  tail call void @free(ptr noundef nonnull %5) #11
  br label %.critedge

35:                                               ; preds = %23
  %36 = getelementptr inbounds nuw ptr, ptr %11, i64 %indvars.iv
  store ptr %31, ptr %36, align 8
  %.val21.pre = load i32, ptr %4, align 4
  br label %37

37:                                               ; preds = %19, %35
  %.val21 = phi i32 [ %.val2129, %19 ], [ %.val21.pre, %35 ]
  %indvars.iv.next = add nuw nsw i64 %indvars.iv, 1
  %38 = sext i32 %.val21 to i64
  %39 = icmp slt i64 %indvars.iv.next, %38
  br i1 %39, label %19, label %.critedge, !llvm.loop !6

.critedge:                                        ; preds = %37, %Vec_PtrStart.exit, %Vec_PtrFree.exit
  %.018 = phi ptr [ null, %Vec_PtrFree.exit ], [ %5, %Vec_PtrStart.exit ], [ %5, %37 ]
  ret ptr %.018
}